target datalayout = "e-m:e-p270:32:32-p271:32:32-p272:64:64-i64:64-i128:128-f80:128-n8:16:32:64-S128"
target triple = "x86_64-pc-linux-gnu"

%struct.lv_grad_dsc_t = type { [2 x %struct.lv_grad_stop_t], i8, i8 }
%struct.lv_grad_stop_t = type { %struct.lv_color_t, i8, i8 }
%struct.lv_color_t = type { i8, i8, i8 }

; Function Attrs: nounwind uwtable
define void @lv_draw_sw_grad_color_calculate(ptr noundef %0, i32 noundef %1, i32 noundef %2, ptr noundef %3, ptr noundef %4) #0 {
  %6 = alloca ptr, align 8
  %7 = alloca i32, align 4
  %8 = alloca i32, align 4
  %9 = alloca ptr, align 8
  %10 = alloca ptr, align 8
  %11 = alloca %struct.lv_color_t, align 1
  %12 = alloca i32, align 4
  %13 = alloca i32, align 4
  %14 = alloca i32, align 4
  %15 = alloca i32, align 4
  %16 = alloca i32, align 4
  %17 = alloca i8, align 1
  %18 = alloca i32, align 4
  %19 = alloca %struct.lv_color_t, align 1
  %20 = alloca %struct.lv_color_t, align 1
  %21 = alloca i8, align 1
  %22 = alloca i8, align 1
  %23 = alloca %struct.lv_color_t, align 1
  store ptr %0, ptr %6, align 8, !tbaa !3
  store i32 %1, ptr %7, align 4, !tbaa !7
  store i32 %2, ptr %8, align 4, !tbaa !7
  store ptr %3, ptr %9, align 8, !tbaa !3
  store ptr %4, ptr %10, align 8, !tbaa !18
  call void @llvm.lifetime.start.p0(i64 3, ptr %11) #4
  call void @llvm.lifetime.start.p0(i64 4, ptr %12) #4
  %24 = load ptr, ptr %6, align 8, !tbaa !3
  %25 = getelementptr inbounds nuw %struct.lv_grad_dsc_t, ptr %24, i32 0, i32 0
  %26 = getelementptr inbounds [2 x %struct.lv_grad_stop_t], ptr %25, i64 0, i64 0
  %27 = getelementptr inbounds nuw %struct.lv_grad_stop_t, ptr %26, i32 0, i32 2
  %28 = load i8, ptr %27, align 4, !tbaa !19
  %29 = zext i8 %28 to i32
  %30 = load i32, ptr %7, align 4, !tbaa !7
  %31 = mul nsw i32 %29, %30
  %32 = ashr i32 %31, 8
  store i32 %32, ptr %12, align 4, !tbaa !7
  %33 = load i32, ptr %8, align 4, !tbaa !7
  %34 = load i32, ptr %12, align 4, !tbaa !7
  %35 = icmp sle i32 %33, %34
  br i1 %35, label %36, label %48

36:                                               ; preds = %5
  %37 = load ptr, ptr %6, align 8, !tbaa !3
  %38 = getelementptr inbounds nuw %struct.lv_grad_dsc_t, ptr %37, i32 0, i32 0
  %39 = getelementptr inbounds [2 x %struct.lv_grad_stop_t], ptr %38, i64 0, i64 0
  %40 = getelementptr inbounds nuw %struct.lv_grad_stop_t, ptr %39, i32 0, i32 0
  call void @llvm.memcpy.p0.p0.i64(ptr align 1 %11, ptr align 4 %40, i64 3, i1 false), !tbaa.struct !22
  %41 = load ptr, ptr %9, align 8, !tbaa !3
  call void @llvm.memcpy.p0.p0.i64(ptr align 1 %41, ptr align 1 %11, i64 3, i1 false), !tbaa.struct !22
  %42 = load ptr, ptr %6, align 8, !tbaa !3
  %43 = getelementptr inbounds nuw %struct.lv_grad_dsc_t, ptr %42, i32 0, i32 0
  %44 = getelementptr inbounds [2 x %struct.lv_grad_stop_t], ptr %43, i64 0, i64 0
  %45 = getelementptr inbounds nuw %struct.lv_grad_stop_t, ptr %44, i32 0, i32 1
  %46 = load i8, ptr %45, align 1, !tbaa !24
  %47 = load ptr, ptr %10, align 8, !tbaa !18
  store i8 %46, ptr %47, align 1, !tbaa !23
  store i32 1, ptr %13, align 4
  br label %270

48:                                               ; preds = %5
  call void @llvm.lifetime.start.p0(i64 4, ptr %14) #4
  %49 = load ptr, ptr %6, align 8, !tbaa !3
  %50 = getelementptr inbounds nuw %struct.lv_grad_dsc_t, ptr %49, i32 0, i32 0
  %51 = load ptr, ptr %6, align 8, !tbaa !3
  %52 = getelementptr inbounds nuw %struct.lv_grad_dsc_t, ptr %51, i32 0, i32 1
  %53 = load i8, ptr %52, align 2, !tbaa !25
  %54 = zext i8 %53 to i32
  %55 = sub nsw i32 %54, 1
  %56 = sext i32 %55 to i64
  %57 = getelementptr inbounds [2 x %struct.lv_grad_stop_t], ptr %50, i64 0, i64 %56
  %58 = getelementptr inbounds nuw %struct.lv_grad_stop_t, ptr %57, i32 0, i32 2
  %59 = load i8, ptr %58, align 1, !tbaa !19
  %60 = zext i8 %59 to i32
  %61 = load i32, ptr %7, align 4, !tbaa !7
  %62 = mul nsw i32 %60, %61
  %63 = ashr i32 %62, 8
  store i32 %63, ptr %14, align 4, !tbaa !7
  %64 = load i32, ptr %8, align 4, !tbaa !7
  %65 = load i32, ptr %14, align 4, !tbaa !7
  %66 = icmp sge i32 %64, %65
  br i1 %66, label %67, label %91

67:                                               ; preds = %48
  %68 = load ptr, ptr %6, align 8, !tbaa !3
  %69 = getelementptr inbounds nuw %struct.lv_grad_dsc_t, ptr %68, i32 0, i32 0
  %70 = load ptr, ptr %6, align 8, !tbaa !3
  %71 = getelementptr inbounds nuw %struct.lv_grad_dsc_t, ptr %70, i32 0, i32 1
  %72 = load i8, ptr %71, align 2, !tbaa !25
  %73 = zext i8 %72 to i32
  %74 = sub nsw i32 %73, 1
  %75 = sext i32 %74 to i64
  %76 = getelementptr inbounds [2 x %struct.lv_grad_stop_t], ptr %69, i64 0, i64 %75
  %77 = getelementptr inbounds nuw %struct.lv_grad_stop_t, ptr %76, i32 0, i32 0
  call void @llvm.memcpy.p0.p0.i64(ptr align 1 %11, ptr align 1 %77, i64 3, i1 false), !tbaa.struct !22
  %78 = load ptr, ptr %9, align 8, !tbaa !3
  call void @llvm.memcpy.p0.p0.i64(ptr align 1 %78, ptr align 1 %11, i64 3, i1 false), !tbaa.struct !22
  %79 = load ptr, ptr %6, align 8, !tbaa !3
  %80 = getelementptr inbounds nuw %struct.lv_grad_dsc_t, ptr %79, i32 0, i32 0
  %81 = load ptr, ptr %6, align 8, !tbaa !3
  %82 = getelementptr inbounds nuw %struct.lv_grad_dsc_t, ptr %81, i32 0, i32 1
  %83 = load i8, ptr %82, align 2, !tbaa !25
  %84 = zext i8 %83 to i32
  %85 = sub nsw i32 %84, 1
  %86 = sext i32 %85 to i64
  %87 = getelementptr inbounds [2 x %struct.lv_grad_stop_t], ptr %80, i64 0, i64 %86
  %88 = getelementptr inbounds nuw %struct.lv_grad_stop_t, ptr %87, i32 0, i32 1
  %89 = load i8, ptr %88, align 1, !tbaa !24
  %90 = load ptr, ptr %10, align 8, !tbaa !18
  store i8 %89, ptr %90, align 1, !tbaa !23
  store i32 1, ptr %13, align 4
  br label %269

91:                                               ; preds = %48
  call void @llvm.lifetime.start.p0(i64 4, ptr %15) #4
  store i32 0, ptr %15, align 4, !tbaa !7
  call void @llvm.lifetime.start.p0(i64 4, ptr %16) #4
  store i32 0, ptr %16, align 4, !tbaa !7
  call void @llvm.lifetime.start.p0(i64 1, ptr %17) #4
  store i8 1, ptr %17, align 1, !tbaa !23
  br label %92

92:                                               ; preds = %123, %91
  %93 = load i8, ptr %17, align 1, !tbaa !23
  %94 = zext i8 %93 to i32
  %95 = load ptr, ptr %6, align 8, !tbaa !3
  %96 = getelementptr inbounds nuw %struct.lv_grad_dsc_t, ptr %95, i32 0, i32 1
  %97 = load i8, ptr %96, align 2, !tbaa !25
  %98 = zext i8 %97 to i32
  %99 = icmp slt i32 %94, %98
  br i1 %99, label %101, label %100

100:                                              ; preds = %92
  store i32 2, ptr %13, align 4
  br label %126

101:                                              ; preds = %92
  call void @llvm.lifetime.start.p0(i64 4, ptr %18) #4
  %102 = load ptr, ptr %6, align 8, !tbaa !3
  %103 = getelementptr inbounds nuw %struct.lv_grad_dsc_t, ptr %102, i32 0, i32 0
  %104 = load i8, ptr %17, align 1, !tbaa !23
  %105 = zext i8 %104 to i64
  %106 = getelementptr inbounds nuw [2 x %struct.lv_grad_stop_t], ptr %103, i64 0, i64 %105
  %107 = getelementptr inbounds nuw %struct.lv_grad_stop_t, ptr %106, i32 0, i32 2
  %108 = load i8, ptr %107, align 1, !tbaa !19
  %109 = zext i8 %108 to i32
  %110 = load i32, ptr %7, align 4, !tbaa !7
  %111 = mul nsw i32 %109, %110
  %112 = ashr i32 %111, 8
  store i32 %112, ptr %18, align 4, !tbaa !7
  %113 = load i32, ptr %8, align 4, !tbaa !7
  %114 = load i32, ptr %18, align 4, !tbaa !7
  %115 = icmp sle i32 %113, %114
  br i1 %115, label %116, label %119

116:                                              ; preds = %101
  %117 = load i8, ptr %17, align 1, !tbaa !23
  %118 = zext i8 %117 to i32
  store i32 %118, ptr %16, align 4, !tbaa !7
  store i32 2, ptr %13, align 4
  br label %120

119:                                              ; preds = %101
  store i32 0, ptr %13, align 4
  br label %120

120:                                              ; preds = %119, %116
  call void @llvm.lifetime.end.p0(i64 4, ptr %18) #4
  %121 = load i32, ptr %13, align 4
  switch i32 %121, label %126 [
    i32 0, label %122
  ]

122:                                              ; preds = %120
  br label %123

123:                                              ; preds = %122
  %124 = load i8, ptr %17, align 1, !tbaa !23
  %125 = add i8 %124, 1
  store i8 %125, ptr %17, align 1, !tbaa !23
  br label %92, !llvm.loop !27

126:                                              ; preds = %120, %100
  call void @llvm.lifetime.end.p0(i64 1, ptr %17) #4
  br label %127

127:                                              ; preds = %126
  br label %128

128:                                              ; preds = %127
  %129 = load i32, ptr %16, align 4, !tbaa !7
  %130 = icmp ne i32 %129, 0
  br i1 %130, label %137, label %131

131:                                              ; preds = %128
  br label %132

132:                                              ; preds = %131
  br label %133

133:                                              ; preds = %132
  br label %134

134:                                              ; preds = %133
  br label %135

135:                                              ; preds = %136, %134
  br label %136

136:                                              ; preds = %135
  br label %135

137:                                              ; preds = %128
  br label %138

138:                                              ; preds = %137
  br label %139

139:                                              ; preds = %138
  call void @llvm.lifetime.start.p0(i64 3, ptr %19) #4
  call void @llvm.lifetime.start.p0(i64 3, ptr %20) #4
  %140 = load ptr, ptr %6, align 8, !tbaa !3
  %141 = getelementptr inbounds nuw %struct.lv_grad_dsc_t, ptr %140, i32 0, i32 0
  %142 = load i32, ptr %16, align 4, !tbaa !7
  %143 = sub nsw i32 %142, 1
  %144 = sext i32 %143 to i64
  %145 = getelementptr inbounds [2 x %struct.lv_grad_stop_t], ptr %141, i64 0, i64 %144
  %146 = getelementptr inbounds nuw %struct.lv_grad_stop_t, ptr %145, i32 0, i32 0
  call void @llvm.memcpy.p0.p0.i64(ptr align 1 %19, ptr align 1 %146, i64 3, i1 false), !tbaa.struct !22
  %147 = load ptr, ptr %6, align 8, !tbaa !3
  %148 = getelementptr inbounds nuw %struct.lv_grad_dsc_t, ptr %147, i32 0, i32 0
  %149 = load i32, ptr %16, align 4, !tbaa !7
  %150 = sext i32 %149 to i64
  %151 = getelementptr inbounds [2 x %struct.lv_grad_stop_t], ptr %148, i64 0, i64 %150
  %152 = getelementptr inbounds nuw %struct.lv_grad_stop_t, ptr %151, i32 0, i32 0
  call void @llvm.memcpy.p0.p0.i64(ptr align 1 %20, ptr align 1 %152, i64 3, i1 false), !tbaa.struct !22
  %153 = load ptr, ptr %6, align 8, !tbaa !3
  %154 = getelementptr inbounds nuw %struct.lv_grad_dsc_t, ptr %153, i32 0, i32 0
  %155 = load i32, ptr %16, align 4, !tbaa !7
  %156 = sub nsw i32 %155, 1
  %157 = sext i32 %156 to i64
  %158 = getelementptr inbounds [2 x %struct.lv_grad_stop_t], ptr %154, i64 0, i64 %157
  %159 = getelementptr inbounds nuw %struct.lv_grad_stop_t, ptr %158, i32 0, i32 2
  %160 = load i8, ptr %159, align 1, !tbaa !19
  %161 = zext i8 %160 to i32
  %162 = load i32, ptr %7, align 4, !tbaa !7
  %163 = mul nsw i32 %161, %162
  %164 = ashr i32 %163, 8
  store i32 %164, ptr %12, align 4, !tbaa !7
  %165 = load ptr, ptr %6, align 8, !tbaa !3
  %166 = getelementptr inbounds nuw %struct.lv_grad_dsc_t, ptr %165, i32 0, i32 0
  %167 = load i32, ptr %16, align 4, !tbaa !7
  %168 = sext i32 %167 to i64
  %169 = getelementptr inbounds [2 x %struct.lv_grad_stop_t], ptr %166, i64 0, i64 %168
  %170 = getelementptr inbounds nuw %struct.lv_grad_stop_t, ptr %169, i32 0, i32 2
  %171 = load i8, ptr %170, align 1, !tbaa !19
  %172 = zext i8 %171 to i32
  %173 = load i32, ptr %7, align 4, !tbaa !7
  %174 = mul nsw i32 %172, %173
  %175 = ashr i32 %174, 8
  store i32 %175, ptr %14, align 4, !tbaa !7
  %176 = load i32, ptr %14, align 4, !tbaa !7
  %177 = load i32, ptr %12, align 4, !tbaa !7
  %178 = sub nsw i32 %176, %177
  store i32 %178, ptr %15, align 4, !tbaa !7
  %179 = load i32, ptr %12, align 4, !tbaa !7
  %180 = load i32, ptr %8, align 4, !tbaa !7
  %181 = sub nsw i32 %180, %179
  store i32 %181, ptr %8, align 4, !tbaa !7
  call void @llvm.lifetime.start.p0(i64 1, ptr %21) #4
  %182 = load i32, ptr %8, align 4, !tbaa !7
  %183 = mul nsw i32 %182, 255
  %184 = load i32, ptr %15, align 4, !tbaa !7
  %185 = sdiv i32 %183, %184
  %186 = trunc i32 %185 to i8
  store i8 %186, ptr %21, align 1, !tbaa !23
  call void @llvm.lifetime.start.p0(i64 1, ptr %22) #4
  %187 = load i8, ptr %21, align 1, !tbaa !23
  %188 = zext i8 %187 to i32
  %189 = sub nsw i32 255, %188
  %190 = trunc i32 %189 to i8
  store i8 %190, ptr %22, align 1, !tbaa !23
  %191 = load ptr, ptr %9, align 8, !tbaa !3
  call void @llvm.lifetime.start.p0(i64 3, ptr %23) #4
  %192 = getelementptr inbounds nuw %struct.lv_color_t, ptr %20, i32 0, i32 2
  %193 = load i8, ptr %192, align 1, !tbaa !28
  %194 = zext i8 %193 to i32
  %195 = load i8, ptr %21, align 1, !tbaa !23
  %196 = zext i8 %195 to i32
  %197 = mul nsw i32 %194, %196
  %198 = getelementptr inbounds nuw %struct.lv_color_t, ptr %19, i32 0, i32 2
  %199 = load i8, ptr %198, align 1, !tbaa !28
  %200 = zext i8 %199 to i32
  %201 = load i8, ptr %22, align 1, !tbaa !23
  %202 = zext i8 %201 to i32
  %203 = mul nsw i32 %200, %202
  %204 = add nsw i32 %197, %203
  %205 = mul i32 %204, 32897
  %206 = lshr i32 %205, 23
  %207 = trunc i32 %206 to i8
  %208 = getelementptr inbounds nuw %struct.lv_color_t, ptr %20, i32 0, i32 1
  %209 = load i8, ptr %208, align 1, !tbaa !29
  %210 = zext i8 %209 to i32
  %211 = load i8, ptr %21, align 1, !tbaa !23
  %212 = zext i8 %211 to i32
  %213 = mul nsw i32 %210, %212
  %214 = getelementptr inbounds nuw %struct.lv_color_t, ptr %19, i32 0, i32 1
  %215 = load i8, ptr %214, align 1, !tbaa !29
  %216 = zext i8 %215 to i32
  %217 = load i8, ptr %22, align 1, !tbaa !23
  %218 = zext i8 %217 to i32
  %219 = mul nsw i32 %216, %218
  %220 = add nsw i32 %213, %219
  %221 = mul i32 %220, 32897
  %222 = lshr i32 %221, 23
  %223 = trunc i32 %222 to i8
  %224 = getelementptr inbounds nuw %struct.lv_color_t, ptr %20, i32 0, i32 0
  %225 = load i8, ptr %224, align 1, !tbaa !30
  %226 = zext i8 %225 to i32
  %227 = load i8, ptr %21, align 1, !tbaa !23
  %228 = zext i8 %227 to i32
  %229 = mul nsw i32 %226, %228
  %230 = getelementptr inbounds nuw %struct.lv_color_t, ptr %19, i32 0, i32 0
  %231 = load i8, ptr %230, align 1, !tbaa !30
  %232 = zext i8 %231 to i32
  %233 = load i8, ptr %22, align 1, !tbaa !23
  %234 = zext i8 %233 to i32
  %235 = mul nsw i32 %232, %234
  %236 = add nsw i32 %229, %235
  %237 = mul i32 %236, 32897
  %238 = lshr i32 %237, 23
  %239 = trunc i32 %238 to i8
  %240 = call i24 @lv_color_make(i8 noundef zeroext %207, i8 noundef zeroext %223, i8 noundef zeroext %239)
  store i24 %240, ptr %23, align 1
  call void @llvm.memcpy.p0.p0.i64(ptr align 1 %191, ptr align 1 %23, i64 3, i1 false), !tbaa.struct !22
  call void @llvm.lifetime.end.p0(i64 3, ptr %23) #4
  %241 = load ptr, ptr %6, align 8, !tbaa !3
  %242 = getelementptr inbounds nuw %struct.lv_grad_dsc_t, ptr %241, i32 0, i32 0
  %243 = load i32, ptr %16, align 4, !tbaa !7
  %244 = sext i32 %243 to i64
  %245 = getelementptr inbounds [2 x %struct.lv_grad_stop_t], ptr %242, i64 0, i64 %244
  %246 = getelementptr inbounds nuw %struct.lv_grad_stop_t, ptr %245, i32 0, i32 1
  %247 = load i8, ptr %246, align 1, !tbaa !24
  %248 = zext i8 %247 to i32
  %249 = load i8, ptr %21, align 1, !tbaa !23
  %250 = zext i8 %249 to i32
  %251 = mul nsw i32 %248, %250
  %252 = load ptr, ptr %6, align 8, !tbaa !3
  %253 = getelementptr inbounds nuw %struct.lv_grad_dsc_t, ptr %252, i32 0, i32 0
  %254 = load i32, ptr %16, align 4, !tbaa !7
  %255 = sub nsw i32 %254, 1
  %256 = sext i32 %255 to i64
  %257 = getelementptr inbounds [2 x %struct.lv_grad_stop_t], ptr %253, i64 0, i64 %256
  %258 = getelementptr inbounds nuw %struct.lv_grad_stop_t, ptr %257, i32 0, i32 1
  %259 = load i8, ptr %258, align 1, !tbaa !24
  %260 = zext i8 %259 to i32
  %261 = load i8, ptr %22, align 1, !tbaa !23
  %262 = zext i8 %261 to i32
  %263 = mul nsw i32 %260, %262
  %264 = add nsw i32 %251, %263
  %265 = mul i32 %264, 32897
  %266 = lshr i32 %265, 23
  %267 = trunc i32 %266 to i8
  %268 = load ptr, ptr %10, align 8, !tbaa !18
  store i8 %267, ptr %268, align 1, !tbaa !23
  call void @llvm.lifetime.end.p0(i64 1, ptr %22) #4
  call void @llvm.lifetime.end.p0(i64 1, ptr %21) #4
  call void @llvm.lifetime.end.p0(i64 3, ptr %20) #4
  call void @llvm.lifetime.end.p0(i64 3, ptr %19) #4
  call void @llvm.lifetime.end.p0(i64 4, ptr %16) #4
  call void @llvm.lifetime.end.p0(i64 4, ptr %15) #4
  store i32 0, ptr %13, align 4
  br label %269

269:                                              ; preds = %139, %67
  call void @llvm.lifetime.end.p0(i64 4, ptr %14) #4
  br label %270

270:                                              ; preds = %269, %36
  call void @llvm.lifetime.end.p0(i64 4, ptr %12) #4
  call void @llvm.lifetime.end.p0(i64 3, ptr %11) #4
  %271 = load i32, ptr %13, align 4
  switch i32 %271, label %273 [
    i32 0, label %272
    i32 1, label %272
  ]

272:                                              ; preds = %270, %270
  ret void

273:                                              ; preds = %270
  unreachable
}